target datalayout = "e-m:e-p270:32:32-p271:32:32-p272:64:64-i64:64-i128:128-f80:128-n8:16:32:64-S128"
target triple = "x86_64-pc-linux-gnu"

%struct.SubscriptingRef = type { %struct.Expr, i32, i32, i32, i32, i32, ptr, ptr, ptr, ptr }
%struct.Expr = type { i32 }
%struct.SubscriptingRefState = type { i8, ptr, i32, ptr, ptr, ptr, i32, ptr, ptr, ptr, i64, i8, i64, i8 }
%struct.ArraySubWorkspace = type { i32, i16, i16, i8, i8, [6 x i32], [6 x i32] }
%struct.SubscriptExecSteps = type { ptr, ptr, ptr, ptr }

@.str.1 = private unnamed_addr constant [12 x i8] c"arraysubs.c\00", align 1
@.str.2 = private unnamed_addr constant [65 x i8] c"number of array dimensions (%d) exceeds the maximum allowed (%d)\00", align 1
@__func__.array_exec_setup = private unnamed_addr constant [17 x i8] c"array_exec_setup\00", align 1
@.str.3 = private unnamed_addr constant [48 x i8] c"upper and lower index lists are not same length\00", align 1

; Function Attrs: nounwind uwtable
define internal void @array_exec_setup(ptr noundef %0, ptr noundef %1, ptr noundef %2) #0 {
  %4 = alloca ptr, align 8
  %5 = alloca ptr, align 8
  %6 = alloca ptr, align 8
  %7 = alloca i8, align 1
  %8 = alloca ptr, align 8
  store ptr %0, ptr %4, align 8
  store ptr %1, ptr %5, align 8
  store ptr %2, ptr %6, align 8
  call void @llvm.lifetime.start.p0(i64 1, ptr %7) #6
  %9 = load ptr, ptr %5, align 8
  %10 = getelementptr inbounds nuw %struct.SubscriptingRefState, ptr %9, i32 0, i32 6
  %11 = load i32, ptr %10, align 8
  %12 = icmp ne i32 %11, 0
  %13 = zext i1 %12 to i8
  store i8 %13, ptr %7, align 1
  call void @llvm.lifetime.start.p0(i64 8, ptr %8) #6
  %14 = load ptr, ptr %5, align 8
  %15 = getelementptr inbounds nuw %struct.SubscriptingRefState, ptr %14, i32 0, i32 2
  %16 = load i32, ptr %15, align 8
  %17 = icmp sgt i32 %16, 6
  br i1 %17, label %18, label %33

18:                                               ; preds = %3
  br label %19

19:                                               ; preds = %18
  br i1 true, label %20, label %22

20:                                               ; preds = %19
  %21 = call zeroext i1 @errstart_cold(i32 noundef 21, ptr noundef null) #7
  br i1 %21, label %24, label %30

22:                                               ; preds = %19
  %23 = call zeroext i1 @errstart(i32 noundef 21, ptr noundef null)
  br i1 %23, label %24, label %30

24:                                               ; preds = %22, %20
  %25 = call i32 @errcode(i32 noundef 261)
  %26 = load ptr, ptr %5, align 8
  %27 = getelementptr inbounds nuw %struct.SubscriptingRefState, ptr %26, i32 0, i32 2
  %28 = load i32, ptr %27, align 8
  %29 = call i32 (ptr, ...) @errmsg(ptr noundef @.str.2, i32 noundef %28, i32 noundef 6)
  call void @errfinish(ptr noundef @.str.1, i32 noundef 490, ptr noundef @__func__.array_exec_setup)
  br label %30

30:                                               ; preds = %24, %22, %20
  unreachable

31:                                               ; No predecessors!
  br label %32

32:                                               ; preds = %31
  br label %33

33:                                               ; preds = %32, %3
  %34 = load ptr, ptr %5, align 8
  %35 = getelementptr inbounds nuw %struct.SubscriptingRefState, ptr %34, i32 0, i32 6
  %36 = load i32, ptr %35, align 8
  %37 = icmp ne i32 %36, 0
  br i1 %37, label %38, label %57

38:                                               ; preds = %33
  %39 = load ptr, ptr %5, align 8
  %40 = getelementptr inbounds nuw %struct.SubscriptingRefState, ptr %39, i32 0, i32 2
  %41 = load i32, ptr %40, align 8
  %42 = load ptr, ptr %5, align 8
  %43 = getelementptr inbounds nuw %struct.SubscriptingRefState, ptr %42, i32 0, i32 6
  %44 = load i32, ptr %43, align 8
  %45 = icmp ne i32 %41, %44
  br i1 %45, label %46, label %57

46:                                               ; preds = %38
  br label %47

47:                                               ; preds = %46
  br i1 true, label %48, label %50

48:                                               ; preds = %47
  %49 = call zeroext i1 @errstart_cold(i32 noundef 21, ptr noundef null) #7
  br i1 %49, label %52, label %54

50:                                               ; preds = %47
  %51 = call zeroext i1 @errstart(i32 noundef 21, ptr noundef null)
  br i1 %51, label %52, label %54

52:                                               ; preds = %50, %48
  %53 = call i32 (ptr, ...) @errmsg_internal(ptr noundef @.str.3)
  call void @errfinish(ptr noundef @.str.1, i32 noundef 495, ptr noundef @__func__.array_exec_setup)
  br label %54

54:                                               ; preds = %52, %50, %48
  unreachable

55:                                               ; No predecessors!
  br label %56

56:                                               ; preds = %55
  br label %57

57:                                               ; preds = %56, %38, %33
  %58 = call ptr @palloc(i64 noundef 60)
  store ptr %58, ptr %8, align 8
  %59 = load ptr, ptr %8, align 8
  %60 = load ptr, ptr %5, align 8
  %61 = getelementptr inbounds nuw %struct.SubscriptingRefState, ptr %60, i32 0, i32 1
  store ptr %59, ptr %61, align 8
  %62 = load ptr, ptr %4, align 8
  %63 = getelementptr inbounds nuw %struct.SubscriptingRef, ptr %62, i32 0, i32 2
  %64 = load i32, ptr %63, align 8
  %65 = load ptr, ptr %8, align 8
  %66 = getelementptr inbounds nuw %struct.ArraySubWorkspace, ptr %65, i32 0, i32 0
  store i32 %64, ptr %66, align 4
  %67 = load ptr, ptr %4, align 8
  %68 = getelementptr inbounds nuw %struct.SubscriptingRef, ptr %67, i32 0, i32 1
  %69 = load i32, ptr %68, align 4
  %70 = call signext i16 @get_typlen(i32 noundef %69)
  %71 = load ptr, ptr %8, align 8
  %72 = getelementptr inbounds nuw %struct.ArraySubWorkspace, ptr %71, i32 0, i32 1
  store i16 %70, ptr %72, align 4
  %73 = load ptr, ptr %4, align 8
  %74 = getelementptr inbounds nuw %struct.SubscriptingRef, ptr %73, i32 0, i32 2
  %75 = load i32, ptr %74, align 8
  %76 = load ptr, ptr %8, align 8
  %77 = getelementptr inbounds nuw %struct.ArraySubWorkspace, ptr %76, i32 0, i32 2
  %78 = load ptr, ptr %8, align 8
  %79 = getelementptr inbounds nuw %struct.ArraySubWorkspace, ptr %78, i32 0, i32 3
  %80 = load ptr, ptr %8, align 8
  %81 = getelementptr inbounds nuw %struct.ArraySubWorkspace, ptr %80, i32 0, i32 4
  call void @get_typlenbyvalalign(i32 noundef %75, ptr noundef %77, ptr noundef %79, ptr noundef %81)
  %82 = load ptr, ptr %6, align 8
  %83 = getelementptr inbounds nuw %struct.SubscriptExecSteps, ptr %82, i32 0, i32 0
  store ptr @array_subscript_check_subscripts, ptr %83, align 8
  %84 = load i8, ptr %7, align 1, !range !4, !noundef !5
  %85 = trunc i8 %84 to i1
  br i1 %85, label %86, label %93

86:                                               ; preds = %57
  %87 = load ptr, ptr %6, align 8
  %88 = getelementptr inbounds nuw %struct.SubscriptExecSteps, ptr %87, i32 0, i32 1
  store ptr @array_subscript_fetch_slice, ptr %88, align 8
  %89 = load ptr, ptr %6, align 8
  %90 = getelementptr inbounds nuw %struct.SubscriptExecSteps, ptr %89, i32 0, i32 2
  store ptr @array_subscript_assign_slice, ptr %90, align 8
  %91 = load ptr, ptr %6, align 8
  %92 = getelementptr inbounds nuw %struct.SubscriptExecSteps, ptr %91, i32 0, i32 3
  store ptr @array_subscript_fetch_old_slice, ptr %92, align 8
  br label %100

93:                                               ; preds = %57
  %94 = load ptr, ptr %6, align 8
  %95 = getelementptr inbounds nuw %struct.SubscriptExecSteps, ptr %94, i32 0, i32 1
  store ptr @array_subscript_fetch, ptr %95, align 8
  %96 = load ptr, ptr %6, align 8
  %97 = getelementptr inbounds nuw %struct.SubscriptExecSteps, ptr %96, i32 0, i32 2
  store ptr @array_subscript_assign, ptr %97, align 8
  %98 = load ptr, ptr %6, align 8
  %99 = getelementptr inbounds nuw %struct.SubscriptExecSteps, ptr %98, i32 0, i32 3
  store ptr @array_subscript_fetch_old, ptr %99, align 8
  br label %100

100:                                              ; preds = %93, %86
  call void @llvm.lifetime.end.p0(i64 8, ptr %8) #6
  call void @llvm.lifetime.end.p0(i64 1, ptr %7) #6
  ret void
}