; Function Attrs: nounwind uwtable
define internal void @array_exec_setup(ptr noundef readonly captures(none) %0, ptr noundef captures(none) %1, ptr noundef writeonly captures(none) %2) #1 {
  %4 = getelementptr inbounds nuw i8, ptr %1, i64 48
  %5 = load i32, ptr %4, align 8
  %.not = icmp eq i32 %5, 0
  %6 = getelementptr inbounds nuw i8, ptr %1, i64 16
  %7 = load i32, ptr %6, align 8
  %8 = icmp sgt i32 %7, 6
  br i1 %8, label %9, label %14

9:                                                ; preds = %3
  %10 = tail call zeroext i1 @errstart_cold(i32 noundef 21, ptr noundef null) #8
  tail call void @llvm.assume(i1 %10)
  %11 = tail call i32 @errcode(i32 noundef 261) #7
  %12 = load i32, ptr %6, align 8
  %13 = tail call i32 (ptr, ...) @errmsg(ptr noundef nonnull @.str.2, i32 noundef %12, i32 noundef 6) #7
  tail call void @errfinish(ptr noundef nonnull @.str.1, i32 noundef 490, ptr noundef nonnull @__func__.array_exec_setup) #7
  unreachable

14:                                               ; preds = %3
  %.not24 = icmp eq i32 %7, %5
  %or.cond = or i1 %.not, %.not24
  br i1 %or.cond, label %18, label %15

15:                                               ; preds = %14
  %16 = tail call zeroext i1 @errstart_cold(i32 noundef 21, ptr noundef null) #8
  tail call void @llvm.assume(i1 %16)
  %17 = tail call i32 (ptr, ...) @errmsg_internal(ptr noundef nonnull @.str.3) #7
  tail call void @errfinish(ptr noundef nonnull @.str.1, i32 noundef 495, ptr noundef nonnull @__func__.array_exec_setup) #7
  unreachable

18:                                               ; preds = %14
  %19 = tail call ptr @palloc(i64 noundef 60) #7
  %20 = getelementptr inbounds nuw i8, ptr %1, i64 8
  store ptr %19, ptr %20, align 8
  %21 = getelementptr inbounds nuw i8, ptr %0, i64 8
  %22 = load i32, ptr %21, align 8
  store i32 %22, ptr %19, align 4
  %23 = getelementptr inbounds nuw i8, ptr %0, i64 4
  %24 = load i32, ptr %23, align 4
  %25 = tail call signext i16 @get_typlen(i32 noundef %24) #7
  %26 = getelementptr inbounds nuw i8, ptr %19, i64 4
  store i16 %25, ptr %26, align 4
  %27 = load i32, ptr %21, align 8
  %28 = getelementptr inbounds nuw i8, ptr %19, i64 6
  %29 = getelementptr inbounds nuw i8, ptr %19, i64 8
  %30 = getelementptr inbounds nuw i8, ptr %19, i64 9
  tail call void @get_typlenbyvalalign(i32 noundef %27, ptr noundef nonnull %28, ptr noundef nonnull %29, ptr noundef nonnull %30) #7
  store ptr @array_subscript_check_subscripts, ptr %2, align 8
  %array_subscript_fetch_slice.sink = select i1 %.not, ptr @array_subscript_fetch, ptr @array_subscript_fetch_slice
  %array_subscript_assign_slice.sink = select i1 %.not, ptr @array_subscript_assign, ptr @array_subscript_assign_slice
  %array_subscript_fetch_old_slice.sink = select i1 %.not, ptr @array_subscript_fetch_old, ptr @array_subscript_fetch_old_slice
  %31 = getelementptr inbounds nuw i8, ptr %2, i64 8
  store ptr %array_subscript_fetch_slice.sink, ptr %31, align 8
  %32 = getelementptr inbounds nuw i8, ptr %2, i64 16
  store ptr %array_subscript_assign_slice.sink, ptr %32, align 8
  %33 = getelementptr inbounds nuw i8, ptr %2, i64 24
  store ptr %array_subscript_fetch_old_slice.sink, ptr %33, align 8
  ret void
}